; Function Attrs: nounwind uwtable
define zeroext range(i8 0, 2) i8 @l_Lean_PersistentArray_anyM___at_Lean_MVarId_clear___spec__11(ptr noundef %0, ptr noundef readonly captures(none) %1) local_unnamed_addr #0 {
  %3 = getelementptr inbounds nuw i8, ptr %1, i64 8
  %4 = load ptr, ptr %3, align 8, !tbaa !10
  %5 = tail call zeroext i8 @l_Lean_PersistentArray_anyMAux___at_Lean_MVarId_clear___spec__12(ptr noundef %0, ptr noundef %4)
  %6 = icmp eq i8 %5, 0
  br i1 %6, label %lean_nat_lt.exit, label %lean_dec.exit19

lean_nat_lt.exit:                                 ; preds = %2
  %7 = getelementptr inbounds nuw i8, ptr %1, i64 16
  %8 = load ptr, ptr %7, align 8, !tbaa !10
  %9 = getelementptr i8, ptr %8, i64 8
  %.val = load i64, ptr %9, align 8, !tbaa !12
  %.mask = and i64 %.val, 9223372036854775807
  %.not = icmp eq i64 %.mask, 0
  br i1 %.not, label %lean_dec.exit19, label %lean_dec.exit

lean_dec.exit:                                    ; preds = %lean_nat_lt.exit
  %10 = tail call zeroext i8 @l_Array_anyMUnsafe_any___at_Lean_MVarId_clear___spec__15(ptr noundef %0, ptr noundef nonnull %8, i64 noundef 0, i64 noundef %.mask)
  br label %lean_dec.exit19

lean_dec.exit19:                                  ; preds = %lean_nat_lt.exit, %2, %lean_dec.exit
  %.1 = phi i8 [ %10, %lean_dec.exit ], [ 1, %2 ], [ 0, %lean_nat_lt.exit ]
  ret i8 %.1
}